; Function Attrs: nounwind uwtable
define ptr @Amap_ParseFormulaOper(ptr noundef %0, ptr noundef captures(none) %1, i32 noundef %2) local_unnamed_addr #0 {
  %4 = getelementptr inbounds nuw i8, ptr %1, i64 8
  %5 = load ptr, ptr %4, align 8, !tbaa !3
  %6 = getelementptr inbounds nuw i8, ptr %1, i64 4
  %7 = load i32, ptr %6, align 4, !tbaa !9
  %8 = sext i32 %7 to i64
  %9 = getelementptr ptr, ptr %5, i64 %8
  %10 = getelementptr i8, ptr %9, i64 -8
  %11 = load ptr, ptr %10, align 8, !tbaa !10
  %12 = add nsw i32 %7, -2
  store i32 %12, ptr %6, align 4, !tbaa !9
  %13 = sext i32 %12 to i64
  %14 = getelementptr inbounds ptr, ptr %5, i64 %13
  %15 = load ptr, ptr %14, align 8, !tbaa !10
  switch i32 %2, label %51 [
    i32 9, label %16
    i32 7, label %18
    i32 8, label %20
  ]

16:                                               ; preds = %3
  %17 = tail call ptr @Hop_And(ptr noundef %0, ptr noundef %15, ptr noundef %11) #14
  br label %22

18:                                               ; preds = %3
  %19 = tail call ptr @Hop_Or(ptr noundef %0, ptr noundef %15, ptr noundef %11) #14
  br label %22

20:                                               ; preds = %3
  %21 = tail call ptr @Hop_Exor(ptr noundef %0, ptr noundef %15, ptr noundef %11) #14
  br label %22

22:                                               ; preds = %18, %20, %16
  %.0 = phi ptr [ %17, %16 ], [ %19, %18 ], [ %21, %20 ]
  %23 = load i32, ptr %6, align 4, !tbaa !9
  %24 = load i32, ptr %1, align 8, !tbaa !11
  %25 = icmp eq i32 %23, %24
  br i1 %25, label %26, label %.Vec_PtrGrow.exit11_crit_edge.i

.Vec_PtrGrow.exit11_crit_edge.i:                  ; preds = %22
  %.pre.i = load ptr, ptr %4, align 8, !tbaa !3
  br label %Vec_PtrPush.exit

26:                                               ; preds = %22
  %27 = icmp slt i32 %23, 16
  br i1 %27, label %28, label %35

28:                                               ; preds = %26
  %29 = load ptr, ptr %4, align 8, !tbaa !3
  %.not9.i.i = icmp eq ptr %29, null
  br i1 %.not9.i.i, label %32, label %30

30:                                               ; preds = %28
  %31 = tail call dereferenceable_or_null(128) ptr @realloc(ptr noundef nonnull %29, i64 noundef 128) #15
  br label %Vec_PtrGrow.exit.i

32:                                               ; preds = %28
  %33 = tail call noalias dereferenceable_or_null(128) ptr @malloc(i64 noundef 128) #16
  br label %Vec_PtrGrow.exit.i

Vec_PtrGrow.exit.i:                               ; preds = %32, %30
  %34 = phi ptr [ %31, %30 ], [ %33, %32 ]
  store ptr %34, ptr %4, align 8, !tbaa !3
  store i32 16, ptr %1, align 8, !tbaa !11
  br label %Vec_PtrPush.exit

35:                                               ; preds = %26
  %36 = shl nuw nsw i32 %23, 1
  %37 = load ptr, ptr %4, align 8, !tbaa !3
  %.not9.i10.i = icmp eq ptr %37, null
  %38 = zext nneg i32 %36 to i64
  %39 = shl nuw nsw i64 %38, 3
  br i1 %.not9.i10.i, label %42, label %40

40:                                               ; preds = %35
  %41 = tail call ptr @realloc(ptr noundef nonnull %37, i64 noundef %39) #15
  br label %44

42:                                               ; preds = %35
  %43 = tail call noalias ptr @malloc(i64 noundef %39) #16
  br label %44

44:                                               ; preds = %42, %40
  %45 = phi ptr [ %41, %40 ], [ %43, %42 ]
  store ptr %45, ptr %4, align 8, !tbaa !3
  store i32 %36, ptr %1, align 8, !tbaa !11
  br label %Vec_PtrPush.exit

Vec_PtrPush.exit:                                 ; preds = %.Vec_PtrGrow.exit11_crit_edge.i, %Vec_PtrGrow.exit.i, %44
  %46 = phi ptr [ %.pre.i, %.Vec_PtrGrow.exit11_crit_edge.i ], [ %45, %44 ], [ %34, %Vec_PtrGrow.exit.i ]
  %47 = load i32, ptr %6, align 4, !tbaa !9
  %48 = add nsw i32 %47, 1
  store i32 %48, ptr %6, align 4, !tbaa !9
  %49 = sext i32 %47 to i64
  %50 = getelementptr inbounds ptr, ptr %46, i64 %49
  store ptr %.0, ptr %50, align 8, !tbaa !10
  br label %51

51:                                               ; preds = %3, %Vec_PtrPush.exit
  %.017 = phi ptr [ %.0, %Vec_PtrPush.exit ], [ null, %3 ]
  ret ptr %.017
}